target datalayout = "e-m:e-p270:32:32-p271:32:32-p272:64:64-i64:64-i128:128-f80:128-n8:16:32:64-S128"
target triple = "x86_64-pc-linux-gnu"

%struct.DdManager = type { %struct.DdNode, ptr, ptr, ptr, ptr, ptr, ptr, ptr, i32, i32, double, double, double, i32, i32, i32, i32, i32, i32, ptr, ptr, %struct.DdSubtable, i32, i32, i32, i32, i32, i32, i32, double, i32, i32, i32, ptr, i64, double, i32, ptr, ptr, ptr, ptr, ptr, ptr, ptr, i32, ptr, ptr, ptr, ptr, ptr, ptr, i32, i32, i32, double, i32, i32, i32, i32, double, double, i32, i32, i32, i32, i32, i32, i32, i32, i32, ptr, ptr, i32, i32, i32, i32, i32, i32, ptr, ptr, ptr, ptr, ptr, ptr, ptr, ptr, i32, i64, i64, i64, i32, i64, i64, double, double, double, double, double, double, i32, ptr, ptr, i64 }
%struct.DdNode = type { i32, i32, ptr, %union.anon, i64 }
%union.anon = type { %struct.DdChildren }
%struct.DdChildren = type { ptr, ptr }
%struct.DdSubtable = type { ptr, i32, i32, i32, i32, i32, i32, i32, i32, i32, i32, i32 }
%struct.DdCache = type { ptr, ptr, i64, ptr, i32 }

; Function Attrs: nounwind uwtable
define ptr @cuddCacheLookupZdd(ptr noundef %0, i64 noundef %1, ptr noundef %2, ptr noundef %3, ptr noundef %4) #0 {
  %6 = alloca ptr, align 8
  %7 = alloca ptr, align 8
  %8 = alloca i64, align 8
  %9 = alloca ptr, align 8
  %10 = alloca ptr, align 8
  %11 = alloca ptr, align 8
  %12 = alloca i32, align 4
  %13 = alloca ptr, align 8
  %14 = alloca ptr, align 8
  %15 = alloca ptr, align 8
  %16 = alloca i64, align 8
  %17 = alloca i64, align 8
  %18 = alloca i64, align 8
  %19 = alloca i64, align 8
  %20 = alloca i64, align 8
  %21 = alloca i64, align 8
  %22 = alloca i32, align 4
  store ptr %0, ptr %7, align 8, !tbaa !3
  store i64 %1, ptr %8, align 8, !tbaa !30
  store ptr %2, ptr %9, align 8, !tbaa !52
  store ptr %3, ptr %10, align 8, !tbaa !52
  store ptr %4, ptr %11, align 8, !tbaa !52
  call void @llvm.lifetime.start.p0(i64 4, ptr %12) #6
  call void @llvm.lifetime.start.p0(i64 8, ptr %13) #6
  call void @llvm.lifetime.start.p0(i64 8, ptr %14) #6
  call void @llvm.lifetime.start.p0(i64 8, ptr %15) #6
  call void @llvm.lifetime.start.p0(i64 8, ptr %16) #6
  call void @llvm.lifetime.start.p0(i64 8, ptr %17) #6
  call void @llvm.lifetime.start.p0(i64 8, ptr %18) #6
  call void @llvm.lifetime.start.p0(i64 8, ptr %19) #6
  call void @llvm.lifetime.start.p0(i64 8, ptr %20) #6
  call void @llvm.lifetime.start.p0(i64 8, ptr %21) #6
  %23 = load ptr, ptr %9, align 8, !tbaa !52
  %24 = ptrtoint ptr %23 to i64
  %25 = load i64, ptr %8, align 8, !tbaa !30
  %26 = and i64 %25, 14
  %27 = or i64 %24, %26
  store i64 %27, ptr %16, align 8, !tbaa !30
  %28 = load ptr, ptr %10, align 8, !tbaa !52
  %29 = ptrtoint ptr %28 to i64
  %30 = load i64, ptr %8, align 8, !tbaa !30
  %31 = lshr i64 %30, 4
  %32 = or i64 %29, %31
  store i64 %32, ptr %17, align 8, !tbaa !30
  %33 = load ptr, ptr %11, align 8, !tbaa !52
  %34 = ptrtoint ptr %33 to i64
  store i64 %34, ptr %18, align 8, !tbaa !30
  %35 = load ptr, ptr %9, align 8, !tbaa !52
  %36 = ptrtoint ptr %35 to i64
  %37 = and i64 %36, -2
  %38 = inttoptr i64 %37 to ptr
  %39 = getelementptr inbounds nuw %struct.DdNode, ptr %38, i32 0, i32 4
  %40 = load i64, ptr %39, align 8, !tbaa !53
  %41 = shl i64 %40, 1
  %42 = load ptr, ptr %9, align 8, !tbaa !52
  %43 = ptrtoint ptr %42 to i64
  %44 = and i64 %43, 1
  %45 = trunc i64 %44 to i32
  %46 = sext i32 %45 to i64
  %47 = or i64 %41, %46
  %48 = load i64, ptr %8, align 8, !tbaa !30
  %49 = and i64 %48, 14
  %50 = or i64 %47, %49
  store i64 %50, ptr %19, align 8, !tbaa !30
  %51 = load ptr, ptr %10, align 8, !tbaa !52
  %52 = ptrtoint ptr %51 to i64
  %53 = and i64 %52, -2
  %54 = inttoptr i64 %53 to ptr
  %55 = getelementptr inbounds nuw %struct.DdNode, ptr %54, i32 0, i32 4
  %56 = load i64, ptr %55, align 8, !tbaa !53
  %57 = shl i64 %56, 1
  %58 = load ptr, ptr %10, align 8, !tbaa !52
  %59 = ptrtoint ptr %58 to i64
  %60 = and i64 %59, 1
  %61 = trunc i64 %60 to i32
  %62 = sext i32 %61 to i64
  %63 = or i64 %57, %62
  %64 = load i64, ptr %8, align 8, !tbaa !30
  %65 = lshr i64 %64, 4
  %66 = or i64 %63, %65
  store i64 %66, ptr %20, align 8, !tbaa !30
  %67 = load ptr, ptr %11, align 8, !tbaa !52
  %68 = ptrtoint ptr %67 to i64
  %69 = and i64 %68, -2
  %70 = inttoptr i64 %69 to ptr
  %71 = getelementptr inbounds nuw %struct.DdNode, ptr %70, i32 0, i32 4
  %72 = load i64, ptr %71, align 8, !tbaa !53
  %73 = shl i64 %72, 1
  %74 = load ptr, ptr %11, align 8, !tbaa !52
  %75 = ptrtoint ptr %74 to i64
  %76 = and i64 %75, 1
  %77 = trunc i64 %76 to i32
  %78 = sext i32 %77 to i64
  %79 = or i64 %73, %78
  store i64 %79, ptr %21, align 8, !tbaa !30
  %80 = load ptr, ptr %7, align 8, !tbaa !3
  %81 = getelementptr inbounds nuw %struct.DdManager, ptr %80, i32 0, i32 7
  %82 = load ptr, ptr %81, align 8, !tbaa !31
  store ptr %82, ptr %14, align 8, !tbaa !54
  %83 = load i64, ptr %19, align 8, !tbaa !30
  %84 = trunc i64 %83 to i32
  %85 = load i64, ptr %21, align 8, !tbaa !30
  %86 = trunc i64 %85 to i32
  %87 = add i32 %84, %86
  %88 = mul i32 %87, 12582917
  %89 = load i64, ptr %20, align 8, !tbaa !30
  %90 = trunc i64 %89 to i32
  %91 = add i32 %88, %90
  %92 = mul i32 %91, 4256249
  %93 = load ptr, ptr %7, align 8, !tbaa !3
  %94 = getelementptr inbounds nuw %struct.DdManager, ptr %93, i32 0, i32 9
  %95 = load i32, ptr %94, align 4, !tbaa !34
  %96 = lshr i32 %92, %95
  store i32 %96, ptr %12, align 4, !tbaa !8
  %97 = load ptr, ptr %14, align 8, !tbaa !54
  %98 = load i32, ptr %12, align 4, !tbaa !8
  %99 = sext i32 %98 to i64
  %100 = getelementptr inbounds %struct.DdCache, ptr %97, i64 %99
  store ptr %100, ptr %13, align 8, !tbaa !54
  %101 = load ptr, ptr %13, align 8, !tbaa !54
  %102 = getelementptr inbounds nuw %struct.DdCache, ptr %101, i32 0, i32 3
  %103 = load ptr, ptr %102, align 8, !tbaa !48
  %104 = icmp ne ptr %103, null
  br i1 %104, label %105, label %147

105:                                              ; preds = %5
  %106 = load ptr, ptr %13, align 8, !tbaa !54
  %107 = getelementptr inbounds nuw %struct.DdCache, ptr %106, i32 0, i32 0
  %108 = load ptr, ptr %107, align 8, !tbaa !55
  %109 = load i64, ptr %16, align 8, !tbaa !30
  %110 = inttoptr i64 %109 to ptr
  %111 = icmp eq ptr %108, %110
  br i1 %111, label %112, label %147

112:                                              ; preds = %105
  %113 = load ptr, ptr %13, align 8, !tbaa !54
  %114 = getelementptr inbounds nuw %struct.DdCache, ptr %113, i32 0, i32 1
  %115 = load ptr, ptr %114, align 8, !tbaa !56
  %116 = load i64, ptr %17, align 8, !tbaa !30
  %117 = inttoptr i64 %116 to ptr
  %118 = icmp eq ptr %115, %117
  br i1 %118, label %119, label %147

119:                                              ; preds = %112
  %120 = load ptr, ptr %13, align 8, !tbaa !54
  %121 = getelementptr inbounds nuw %struct.DdCache, ptr %120, i32 0, i32 2
  %122 = load i64, ptr %121, align 8, !tbaa !46
  %123 = load i64, ptr %18, align 8, !tbaa !30
  %124 = icmp eq i64 %122, %123
  br i1 %124, label %125, label %147

125:                                              ; preds = %119
  %126 = load ptr, ptr %13, align 8, !tbaa !54
  %127 = getelementptr inbounds nuw %struct.DdCache, ptr %126, i32 0, i32 3
  %128 = load ptr, ptr %127, align 8, !tbaa !48
  %129 = ptrtoint ptr %128 to i64
  %130 = and i64 %129, -2
  %131 = inttoptr i64 %130 to ptr
  store ptr %131, ptr %15, align 8, !tbaa !52
  %132 = load ptr, ptr %7, align 8, !tbaa !3
  %133 = getelementptr inbounds nuw %struct.DdManager, ptr %132, i32 0, i32 11
  %134 = load double, ptr %133, align 8, !tbaa !39
  %135 = fadd double %134, 1.000000e+00
  store double %135, ptr %133, align 8, !tbaa !39
  %136 = load ptr, ptr %15, align 8, !tbaa !52
  %137 = getelementptr inbounds nuw %struct.DdNode, ptr %136, i32 0, i32 1
  %138 = load i32, ptr %137, align 4, !tbaa !59
  %139 = icmp eq i32 %138, 0
  br i1 %139, label %140, label %143

140:                                              ; preds = %125
  %141 = load ptr, ptr %7, align 8, !tbaa !3
  %142 = load ptr, ptr %15, align 8, !tbaa !52
  call void @cuddReclaimZdd(ptr noundef %141, ptr noundef %142)
  br label %143

143:                                              ; preds = %140, %125
  %144 = load ptr, ptr %13, align 8, !tbaa !54
  %145 = getelementptr inbounds nuw %struct.DdCache, ptr %144, i32 0, i32 3
  %146 = load ptr, ptr %145, align 8, !tbaa !48
  store ptr %146, ptr %6, align 8
  store i32 1, ptr %22, align 4
  br label %171

147:                                              ; preds = %119, %112, %105, %5
  %148 = load ptr, ptr %7, align 8, !tbaa !3
  %149 = getelementptr inbounds nuw %struct.DdManager, ptr %148, i32 0, i32 10
  %150 = load double, ptr %149, align 8, !tbaa !38
  %151 = fadd double %150, 1.000000e+00
  store double %151, ptr %149, align 8, !tbaa !38
  %152 = load ptr, ptr %7, align 8, !tbaa !3
  %153 = getelementptr inbounds nuw %struct.DdManager, ptr %152, i32 0, i32 13
  %154 = load i32, ptr %153, align 8, !tbaa !36
  %155 = icmp sge i32 %154, 0
  br i1 %155, label %156, label %170

156:                                              ; preds = %147
  %157 = load ptr, ptr %7, align 8, !tbaa !3
  %158 = getelementptr inbounds nuw %struct.DdManager, ptr %157, i32 0, i32 11
  %159 = load double, ptr %158, align 8, !tbaa !39
  %160 = load ptr, ptr %7, align 8, !tbaa !3
  %161 = getelementptr inbounds nuw %struct.DdManager, ptr %160, i32 0, i32 10
  %162 = load double, ptr %161, align 8, !tbaa !38
  %163 = load ptr, ptr %7, align 8, !tbaa !3
  %164 = getelementptr inbounds nuw %struct.DdManager, ptr %163, i32 0, i32 12
  %165 = load double, ptr %164, align 8, !tbaa !37
  %166 = fmul double %162, %165
  %167 = fcmp ogt double %159, %166
  br i1 %167, label %168, label %170

168:                                              ; preds = %156
  %169 = load ptr, ptr %7, align 8, !tbaa !3
  call void @cuddCacheResize(ptr noundef %169)
  br label %170

170:                                              ; preds = %168, %156, %147
  store ptr null, ptr %6, align 8
  store i32 1, ptr %22, align 4
  br label %171

171:                                              ; preds = %170, %143
  call void @llvm.lifetime.end.p0(i64 8, ptr %21) #6
  call void @llvm.lifetime.end.p0(i64 8, ptr %20) #6
  call void @llvm.lifetime.end.p0(i64 8, ptr %19) #6
  call void @llvm.lifetime.end.p0(i64 8, ptr %18) #6
  call void @llvm.lifetime.end.p0(i64 8, ptr %17) #6
  call void @llvm.lifetime.end.p0(i64 8, ptr %16) #6
  call void @llvm.lifetime.end.p0(i64 8, ptr %15) #6
  call void @llvm.lifetime.end.p0(i64 8, ptr %14) #6
  call void @llvm.lifetime.end.p0(i64 8, ptr %13) #6
  call void @llvm.lifetime.end.p0(i64 4, ptr %12) #6
  %172 = load ptr, ptr %6, align 8
  ret ptr %172
}