; Function Attrs: nounwind uwtable
define ptr @cuddCacheLookupZdd(ptr noundef %0, i64 noundef %1, ptr noundef %2, ptr noundef %3, ptr noundef %4) local_unnamed_addr #0 {
  %6 = ptrtoint ptr %2 to i64
  %7 = and i64 %1, 14
  %8 = ptrtoint ptr %3 to i64
  %9 = lshr i64 %1, 4
  %10 = or i64 %9, %8
  %11 = ptrtoint ptr %4 to i64
  %12 = and i64 %6, -2
  %13 = inttoptr i64 %12 to ptr
  %14 = getelementptr inbounds nuw i8, ptr %13, i64 32
  %15 = load i64, ptr %14, align 8, !tbaa !40
  %16 = shl i64 %15, 1
  %17 = and i64 %6, 1
  %18 = or disjoint i64 %16, %17
  %19 = or i64 %18, %7
  %20 = and i64 %8, -2
  %21 = inttoptr i64 %20 to ptr
  %22 = getelementptr inbounds nuw i8, ptr %21, i64 32
  %23 = load i64, ptr %22, align 8, !tbaa !40
  %24 = shl i64 %23, 1
  %25 = and i64 %8, 1
  %26 = or disjoint i64 %24, %25
  %27 = or i64 %26, %9
  %28 = and i64 %11, -2
  %29 = inttoptr i64 %28 to ptr
  %30 = getelementptr inbounds nuw i8, ptr %29, i64 32
  %31 = load i64, ptr %30, align 8, !tbaa !40
  %32 = shl i64 %31, 1
  %33 = and i64 %11, 1
  %34 = or disjoint i64 %32, %33
  %35 = getelementptr inbounds nuw i8, ptr %0, i64 88
  %36 = load ptr, ptr %35, align 8, !tbaa !28
  %37 = trunc i64 %19 to i32
  %38 = trunc i64 %34 to i32
  %39 = add i32 %38, %37
  %40 = mul i32 %39, 12582917
  %41 = trunc i64 %27 to i32
  %42 = add i32 %40, %41
  %43 = mul i32 %42, 4256249
  %44 = getelementptr inbounds nuw i8, ptr %0, i64 100
  %45 = load i32, ptr %44, align 4, !tbaa !31
  %46 = lshr i32 %43, %45
  %47 = sext i32 %46 to i64
  %48 = getelementptr inbounds %struct.DdCache, ptr %36, i64 %47
  %49 = getelementptr inbounds nuw i8, ptr %48, i64 24
  %50 = load ptr, ptr %49, align 8, !tbaa !41
  %.not = icmp eq ptr %50, null
  br i1 %.not, label %76, label %51

51:                                               ; preds = %5
  %52 = or i64 %7, %6
  %53 = load ptr, ptr %48, align 8, !tbaa !45
  %54 = inttoptr i64 %52 to ptr
  %55 = icmp eq ptr %53, %54
  br i1 %55, label %56, label %76

56:                                               ; preds = %51
  %57 = getelementptr inbounds nuw i8, ptr %48, i64 8
  %58 = load ptr, ptr %57, align 8, !tbaa !46
  %59 = inttoptr i64 %10 to ptr
  %60 = icmp eq ptr %58, %59
  br i1 %60, label %61, label %76

61:                                               ; preds = %56
  %62 = getelementptr inbounds nuw i8, ptr %48, i64 16
  %63 = load i64, ptr %62, align 8, !tbaa !47
  %64 = icmp eq i64 %63, %11
  br i1 %64, label %65, label %76

65:                                               ; preds = %61
  %66 = ptrtoint ptr %50 to i64
  %67 = and i64 %66, -2
  %68 = inttoptr i64 %67 to ptr
  %69 = getelementptr inbounds nuw i8, ptr %0, i64 112
  %70 = load double, ptr %69, align 8, !tbaa !36
  %71 = fadd double %70, 1.000000e+00
  store double %71, ptr %69, align 8, !tbaa !36
  %72 = getelementptr inbounds nuw i8, ptr %68, i64 4
  %73 = load i32, ptr %72, align 4, !tbaa !49
  %74 = icmp eq i32 %73, 0
  br i1 %74, label %75, label %91

75:                                               ; preds = %65
  tail call void @cuddReclaimZdd(ptr noundef nonnull %0, ptr noundef nonnull %68) #14
  %.pre = load ptr, ptr %49, align 8, !tbaa !41
  br label %91

76:                                               ; preds = %61, %56, %51, %5
  %77 = getelementptr inbounds nuw i8, ptr %0, i64 104
  %78 = load double, ptr %77, align 8, !tbaa !35
  %79 = fadd double %78, 1.000000e+00
  store double %79, ptr %77, align 8, !tbaa !35
  %80 = getelementptr inbounds nuw i8, ptr %0, i64 128
  %81 = load i32, ptr %80, align 8, !tbaa !33
  %82 = icmp sgt i32 %81, -1
  br i1 %82, label %83, label %91

83:                                               ; preds = %76
  %84 = getelementptr inbounds nuw i8, ptr %0, i64 112
  %85 = load double, ptr %84, align 8, !tbaa !36
  %86 = getelementptr inbounds nuw i8, ptr %0, i64 120
  %87 = load double, ptr %86, align 8, !tbaa !34
  %88 = fmul double %79, %87
  %89 = fcmp ogt double %85, %88
  br i1 %89, label %90, label %91

90:                                               ; preds = %83
  tail call void @cuddCacheResize(ptr noundef nonnull %0)
  br label %91

91:                                               ; preds = %65, %75, %76, %83, %90
  %.0 = phi ptr [ null, %90 ], [ null, %83 ], [ null, %76 ], [ %.pre, %75 ], [ %50, %65 ]
  ret ptr %.0
}